; ModuleID = '3/3123.c'
source_filename = "3/3123.c"
target datalayout = "e-m:e-p270:32:32-p271:32:32-p272:64:64-i64:64-f80:128-n8:16:32:64-S128"
target triple = "x86_64-pc-linux-gnu"

@.str = private unnamed_addr constant [6 x i8] c"%d %d\00", align 1
@.str.1 = private unnamed_addr constant [3 x i8] c"%d\00", align 1
@.str.2 = private unnamed_addr constant [4 x i8] c"yes\00", align 1
@.str.3 = private unnamed_addr constant [3 x i8] c"no\00", align 1

; Function Attrs: noinline nounwind uwtable
define dso_local i32 @main() #0 {
  %1 = alloca i32, align 4
  %2 = alloca i32, align 4
  %3 = alloca i32, align 4
  %4 = alloca i32, align 4
  %5 = alloca [100 x i32], align 16
  %6 = alloca i32, align 4
  %7 = alloca i32, align 4
  %8 = alloca i32, align 4
  store i32 0, i32* %1, align 4
  %9 = call i32 (i8*, ...) @__isoc99_scanf(i8* getelementptr inbounds ([6 x i8], [6 x i8]* @.str, i64 0, i64 0), i32* %2, i32* %3)
  %10 = bitcast [100 x i32]* %5 to i8*
  call void @llvm.memset.p0i8.i64(i8* align 16 %10, i8 0, i64 400, i1 false)
  store i32 0, i32* %6, align 4
  br label %11

11:                                               ; preds = %20, %0
  %12 = load i32, i32* %6, align 4
  %13 = load i32, i32* %2, align 4
  %14 = icmp slt i32 %12, %13
  br i1 %14, label %15, label %23

15:                                               ; preds = %11
  %16 = load i32, i32* %6, align 4
  %17 = sext i32 %16 to i64
  %18 = getelementptr inbounds [100 x i32], [100 x i32]* %5, i64 0, i64 %17
  %19 = call i32 (i8*, ...) @__isoc99_scanf(i8* getelementptr inbounds ([3 x i8], [3 x i8]* @.str.1, i64 0, i64 0), i32* %18)
  br label %20

20:                                               ; preds = %15
  %21 = load i32, i32* %6, align 4
  %22 = add nsw i32 %21, 1
  store i32 %22, i32* %6, align 4
  br label %11

23:                                               ; preds = %11
  store i32 0, i32* %7, align 4
  br label %24

24:                                               ; preds = %55, %23
  %25 = load i32, i32* %7, align 4
  %26 = load i32, i32* %2, align 4
  %27 = icmp slt i32 %25, %26
  br i1 %27, label %28, label %58

28:                                               ; preds = %24
  store i32 0, i32* %8, align 4
  br label %29

29:                                               ; preds = %51, %28
  %30 = load i32, i32* %8, align 4
  %31 = load i32, i32* %2, align 4
  %32 = icmp slt i32 %30, %31
  br i1 %32, label %33, label %54

33:                                               ; preds = %29
  %34 = load i32, i32* %7, align 4
  %35 = sext i32 %34 to i64
  %36 = getelementptr inbounds [100 x i32], [100 x i32]* %5, i64 0, i64 %35
  %37 = load i32, i32* %36, align 4
  %38 = load i32, i32* %8, align 4
  %39 = sext i32 %38 to i64
  %40 = getelementptr inbounds [100 x i32], [100 x i32]* %5, i64 0, i64 %39
  %41 = load i32, i32* %40, align 4
  %42 = add nsw i32 %37, %41
  %43 = load i32, i32* %3, align 4
  %44 = icmp eq i32 %42, %43
  br i1 %44, label %45, label %50

45:                                               ; preds = %33
  %46 = load i32, i32* %7, align 4
  %47 = load i32, i32* %8, align 4
  %48 = icmp ne i32 %46, %47
  br i1 %48, label %49, label %50

49:                                               ; preds = %45
  store i32 1, i32* %4, align 4
  br label %50

50:                                               ; preds = %49, %45, %33
  br label %51

51:                                               ; preds = %50
  %52 = load i32, i32* %8, align 4
  %53 = add nsw i32 %52, 1
  store i32 %53, i32* %8, align 4
  br label %29

54:                                               ; preds = %29
  br label %55

55:                                               ; preds = %54
  %56 = load i32, i32* %7, align 4
  %57 = add nsw i32 %56, 1
  store i32 %57, i32* %7, align 4
  br label %24

58:                                               ; preds = %24
  %59 = load i32, i32* %4, align 4
  switch i32 %59, label %62 [
    i32 1, label %60
  ]

60:                                               ; preds = %58
  %61 = call i32 (i8*, ...) @printf(i8* getelementptr inbounds ([4 x i8], [4 x i8]* @.str.2, i64 0, i64 0))
  br label %64

62:                                               ; preds = %58
  %63 = call i32 (i8*, ...) @printf(i8* getelementptr inbounds ([3 x i8], [3 x i8]* @.str.3, i64 0, i64 0))
  br label %64

64:                                               ; preds = %62, %60
  ret i32 0
}

declare dso_local i32 @__isoc99_scanf(i8*, ...) #1

; Function Attrs: argmemonly nounwind willreturn
declare void @llvm.memset.p0i8.i64(i8* nocapture writeonly, i8, i64, i1 immarg) #2

declare dso_local i32 @printf(i8*, ...) #1


!llvm.module.flags = !{!0}
!llvm.ident = !{!1}

!0 = !{i32 1, !"wchar_size", i32 4}
!1 = !{!"clang version 10.0.0-4ubuntu1 "}
